target datalayout = "e-m:e-p270:32:32-p271:32:32-p272:64:64-i64:64-i128:128-f80:128-n8:16:32:64-S128"
target triple = "x86_64-pc-linux-gnu"

; Function Attrs: nounwind uwtable
define internal i32 @try_len(i64 noundef %0, i64 noundef %1, i64 noundef %2, i64 noundef %3, i64 noundef %4, ptr noundef %5, ptr noundef %6) #0 {
  %8 = alloca i32, align 4
  %9 = alloca i64, align 8
  %10 = alloca i64, align 8
  %11 = alloca i64, align 8
  %12 = alloca i64, align 8
  %13 = alloca i64, align 8
  %14 = alloca ptr, align 8
  %15 = alloca ptr, align 8
  %16 = alloca i64, align 8
  %17 = alloca i64, align 8
  %18 = alloca i32, align 4
  store i64 %0, ptr %9, align 8, !tbaa !28
  store i64 %1, ptr %10, align 8, !tbaa !28
  store i64 %2, ptr %11, align 8, !tbaa !28
  store i64 %3, ptr %12, align 8, !tbaa !28
  store i64 %4, ptr %13, align 8, !tbaa !28
  store ptr %5, ptr %14, align 8, !tbaa !221
  store ptr %6, ptr %15, align 8, !tbaa !221
  call void @llvm.lifetime.start.p0(i64 8, ptr %16) #7
  call void @llvm.lifetime.start.p0(i64 8, ptr %17) #7
  %19 = load i64, ptr %13, align 8, !tbaa !28
  %20 = icmp ugt i64 %19, -1
  br i1 %20, label %21, label %22

21:                                               ; preds = %7
  br label %24

22:                                               ; preds = %7
  %23 = load i64, ptr %13, align 8, !tbaa !28
  br label %24

24:                                               ; preds = %22, %21
  %25 = phi i64 [ -1, %21 ], [ %23, %22 ]
  store i64 %25, ptr %17, align 8, !tbaa !28
  %26 = load i64, ptr %11, align 8, !tbaa !28
  %27 = load i64, ptr %12, align 8, !tbaa !28
  %28 = add i64 %26, %27
  %29 = load ptr, ptr %14, align 8, !tbaa !221
  store i64 %28, ptr %29, align 8, !tbaa !28
  %30 = load i64, ptr %10, align 8, !tbaa !28
  %31 = icmp eq i64 %30, 0
  br i1 %31, label %32, label %39

32:                                               ; preds = %24
  %33 = load i64, ptr %9, align 8, !tbaa !28
  %34 = load ptr, ptr %14, align 8, !tbaa !221
  %35 = load i64, ptr %34, align 8, !tbaa !28
  %36 = icmp uge i64 %33, %35
  br i1 %36, label %37, label %39

37:                                               ; preds = %32
  %38 = load ptr, ptr %15, align 8, !tbaa !221
  store i64 0, ptr %38, align 8, !tbaa !28
  store i32 1, ptr %8, align 4
  store i32 1, ptr %18, align 4
  br label %72

39:                                               ; preds = %32, %24
  %40 = load i64, ptr %10, align 8, !tbaa !28
  store i64 %40, ptr %16, align 8, !tbaa !28
  %41 = load i64, ptr %16, align 8, !tbaa !28
  %42 = load i64, ptr %17, align 8, !tbaa !28
  %43 = icmp ugt i64 %41, %42
  br i1 %43, label %44, label %46

44:                                               ; preds = %39
  %45 = load i64, ptr %17, align 8, !tbaa !28
  store i64 %45, ptr %16, align 8, !tbaa !28
  br label %46

46:                                               ; preds = %44, %39
  %47 = load i64, ptr %16, align 8, !tbaa !28
  %48 = load ptr, ptr %14, align 8, !tbaa !221
  %49 = load i64, ptr %48, align 8, !tbaa !28
  %50 = add i64 %47, %49
  %51 = load i64, ptr %9, align 8, !tbaa !28
  %52 = icmp ugt i64 %50, %51
  br i1 %52, label %53, label %66

53:                                               ; preds = %46
  %54 = load i64, ptr %9, align 8, !tbaa !28
  %55 = load ptr, ptr %14, align 8, !tbaa !221
  %56 = load i64, ptr %55, align 8, !tbaa !28
  %57 = icmp uge i64 %54, %56
  br i1 %57, label %58, label %63

58:                                               ; preds = %53
  %59 = load i64, ptr %9, align 8, !tbaa !28
  %60 = load ptr, ptr %14, align 8, !tbaa !221
  %61 = load i64, ptr %60, align 8, !tbaa !28
  %62 = sub i64 %59, %61
  br label %64

63:                                               ; preds = %53
  br label %64

64:                                               ; preds = %63, %58
  %65 = phi i64 [ %62, %58 ], [ 0, %63 ]
  store i64 %65, ptr %16, align 8, !tbaa !28
  br label %66

66:                                               ; preds = %64, %46
  %67 = load i64, ptr %16, align 8, !tbaa !28
  %68 = load ptr, ptr %15, align 8, !tbaa !221
  store i64 %67, ptr %68, align 8, !tbaa !28
  %69 = load i64, ptr %16, align 8, !tbaa !28
  %70 = icmp ugt i64 %69, 0
  %71 = zext i1 %70 to i32
  store i32 %71, ptr %8, align 4
  store i32 1, ptr %18, align 4
  br label %72

72:                                               ; preds = %66, %37
  call void @llvm.lifetime.end.p0(i64 8, ptr %17) #7
  call void @llvm.lifetime.end.p0(i64 8, ptr %16) #7
  %73 = load i32, ptr %8, align 4
  ret i32 %73
}

; Function Attrs: nounwind uwtable
define internal i32 @determine_len(i64 noundef %0, i64 noundef %1, i64 noundef %2, ptr noundef %3, ptr noundef %4) #0 {
  %6 = alloca i64, align 8
  %7 = alloca i64, align 8
  %8 = alloca i64, align 8
  %9 = alloca ptr, align 8
  %10 = alloca ptr, align 8
  %11 = alloca i32, align 4
  %12 = alloca i64, align 8
  %13 = alloca i64, align 8
  %14 = alloca [4 x i64], align 16
  %15 = alloca [4 x i64], align 16
  %16 = alloca i32, align 4
  %17 = alloca [4 x i32], align 16
  store i64 %0, ptr %6, align 8, !tbaa !28
  store i64 %1, ptr %7, align 8, !tbaa !28
  store i64 %2, ptr %8, align 8, !tbaa !28
  store ptr %3, ptr %9, align 8, !tbaa !221
  store ptr %4, ptr %10, align 8, !tbaa !221
  call void @llvm.lifetime.start.p0(i64 4, ptr %11) #7
  store i32 0, ptr %11, align 4, !tbaa !43
  call void @llvm.lifetime.start.p0(i64 8, ptr %12) #7
  store i64 0, ptr %12, align 8, !tbaa !28
  call void @llvm.lifetime.start.p0(i64 8, ptr %13) #7
  store i64 0, ptr %13, align 8, !tbaa !28
  call void @llvm.lifetime.start.p0(i64 32, ptr %14) #7
  call void @llvm.lifetime.start.p0(i64 32, ptr %15) #7
  call void @llvm.lifetime.start.p0(i64 4, ptr %16) #7
  call void @llvm.lifetime.start.p0(i64 16, ptr %17) #7
  call void @llvm.memset.p0.i64(ptr align 16 %17, i8 0, i64 16, i1 false)
  %18 = load i64, ptr %6, align 8, !tbaa !28
  %19 = load i64, ptr %7, align 8, !tbaa !28
  %20 = load i64, ptr %8, align 8, !tbaa !28
  %21 = getelementptr inbounds [4 x i64], ptr %15, i64 0, i64 0
  %22 = getelementptr inbounds [4 x i64], ptr %14, i64 0, i64 0
  %23 = call i32 @try_len(i64 noundef %18, i64 noundef %19, i64 noundef %20, i64 noundef 1, i64 noundef 63, ptr noundef %21, ptr noundef %22)
  %24 = getelementptr inbounds [4 x i32], ptr %17, i64 0, i64 0
  store i32 %23, ptr %24, align 16, !tbaa !43
  %25 = load i64, ptr %6, align 8, !tbaa !28
  %26 = load i64, ptr %7, align 8, !tbaa !28
  %27 = load i64, ptr %8, align 8, !tbaa !28
  %28 = getelementptr inbounds [4 x i64], ptr %15, i64 0, i64 1
  %29 = getelementptr inbounds [4 x i64], ptr %14, i64 0, i64 1
  %30 = call i32 @try_len(i64 noundef %25, i64 noundef %26, i64 noundef %27, i64 noundef 2, i64 noundef 16383, ptr noundef %28, ptr noundef %29)
  %31 = getelementptr inbounds [4 x i32], ptr %17, i64 0, i64 1
  store i32 %30, ptr %31, align 4, !tbaa !43
  %32 = load i64, ptr %6, align 8, !tbaa !28
  %33 = load i64, ptr %7, align 8, !tbaa !28
  %34 = load i64, ptr %8, align 8, !tbaa !28
  %35 = getelementptr inbounds [4 x i64], ptr %15, i64 0, i64 2
  %36 = getelementptr inbounds [4 x i64], ptr %14, i64 0, i64 2
  %37 = call i32 @try_len(i64 noundef %32, i64 noundef %33, i64 noundef %34, i64 noundef 4, i64 noundef 1073741823, ptr noundef %35, ptr noundef %36)
  %38 = getelementptr inbounds [4 x i32], ptr %17, i64 0, i64 2
  store i32 %37, ptr %38, align 8, !tbaa !43
  %39 = load i64, ptr %6, align 8, !tbaa !28
  %40 = load i64, ptr %7, align 8, !tbaa !28
  %41 = load i64, ptr %8, align 8, !tbaa !28
  %42 = getelementptr inbounds [4 x i64], ptr %15, i64 0, i64 3
  %43 = getelementptr inbounds [4 x i64], ptr %14, i64 0, i64 3
  %44 = call i32 @try_len(i64 noundef %39, i64 noundef %40, i64 noundef %41, i64 noundef 8, i64 noundef 4611686018427387903, ptr noundef %42, ptr noundef %43)
  %45 = getelementptr inbounds [4 x i32], ptr %17, i64 0, i64 3
  store i32 %44, ptr %45, align 4, !tbaa !43
  store i32 3, ptr %16, align 4, !tbaa !43
  br label %46

46:                                               ; preds = %72, %5
  %47 = load i32, ptr %16, align 4, !tbaa !43
  %48 = icmp sge i32 %47, 0
  br i1 %48, label %49, label %75

49:                                               ; preds = %46
  %50 = load i32, ptr %16, align 4, !tbaa !43
  %51 = sext i32 %50 to i64
  %52 = getelementptr inbounds [4 x i32], ptr %17, i64 0, i64 %51
  %53 = load i32, ptr %52, align 4, !tbaa !43
  %54 = icmp ne i32 %53, 0
  br i1 %54, label %55, label %71

55:                                               ; preds = %49
  %56 = load i32, ptr %16, align 4, !tbaa !43
  %57 = sext i32 %56 to i64
  %58 = getelementptr inbounds [4 x i64], ptr %14, i64 0, i64 %57
  %59 = load i64, ptr %58, align 8, !tbaa !28
  %60 = load i64, ptr %12, align 8, !tbaa !28
  %61 = icmp uge i64 %59, %60
  br i1 %61, label %62, label %71

62:                                               ; preds = %55
  %63 = load i32, ptr %16, align 4, !tbaa !43
  %64 = sext i32 %63 to i64
  %65 = getelementptr inbounds [4 x i64], ptr %14, i64 0, i64 %64
  %66 = load i64, ptr %65, align 8, !tbaa !28
  store i64 %66, ptr %12, align 8, !tbaa !28
  %67 = load i32, ptr %16, align 4, !tbaa !43
  %68 = sext i32 %67 to i64
  %69 = getelementptr inbounds [4 x i64], ptr %15, i64 0, i64 %68
  %70 = load i64, ptr %69, align 8, !tbaa !28
  store i64 %70, ptr %13, align 8, !tbaa !28
  store i32 1, ptr %11, align 4, !tbaa !43
  br label %71

71:                                               ; preds = %62, %55, %49
  br label %72

72:                                               ; preds = %71
  %73 = load i32, ptr %16, align 4, !tbaa !43
  %74 = add nsw i32 %73, -1
  store i32 %74, ptr %16, align 4, !tbaa !43
  br label %46, !llvm.loop !269

75:                                               ; preds = %46
  %76 = load i64, ptr %13, align 8, !tbaa !28
  %77 = load ptr, ptr %9, align 8, !tbaa !221
  store i64 %76, ptr %77, align 8, !tbaa !28
  %78 = load i64, ptr %12, align 8, !tbaa !28
  %79 = load ptr, ptr %10, align 8, !tbaa !221
  store i64 %78, ptr %79, align 8, !tbaa !28
  %80 = load i32, ptr %11, align 4, !tbaa !43
  call void @llvm.lifetime.end.p0(i64 16, ptr %17) #7
  call void @llvm.lifetime.end.p0(i64 4, ptr %16) #7
  call void @llvm.lifetime.end.p0(i64 32, ptr %15) #7
  call void @llvm.lifetime.end.p0(i64 32, ptr %14) #7
  call void @llvm.lifetime.end.p0(i64 8, ptr %13) #7
  call void @llvm.lifetime.end.p0(i64 8, ptr %12) #7
  call void @llvm.lifetime.end.p0(i64 4, ptr %11) #7
  ret i32 %80
}