; Function Attrs: nofree norecurse nosync nounwind memory(argmem: write) uwtable
define internal fastcc range(i32 0, 2) i32 @determine_len(i64 noundef range(i64 3, 0) %0, i64 noundef %1, i64 noundef %2, ptr noundef nonnull writeonly captures(none) %3, ptr noundef nonnull writeonly captures(none) %4) unnamed_addr #8 {
  %6 = alloca [4 x i64], align 16
  %7 = alloca [4 x i64], align 16
  %8 = alloca [4 x i32], align 16
  call void @llvm.lifetime.start.p0(i64 32, ptr nonnull %6) #10
  call void @llvm.lifetime.start.p0(i64 32, ptr nonnull %7) #10
  call void @llvm.lifetime.start.p0(i64 16, ptr nonnull %8) #10
  %9 = add i64 %2, 1
  store i64 %9, ptr %7, align 16, !tbaa !49
  %10 = icmp ne i64 %1, 0
  %.not.i = icmp ult i64 %0, %9
  %or.cond.i = or i1 %10, %.not.i
  br i1 %or.cond.i, label %11, label %try_len.exit

11:                                               ; preds = %5
  %spec.select.i = tail call i64 @llvm.umin.i64(i64 %1, i64 63)
  %12 = add i64 %9, %spec.select.i
  %13 = icmp ugt i64 %12, %0
  %spec.select29.i = tail call i64 @llvm.usub.sat.i64(i64 range(i64 3, 0) %0, i64 %9)
  %.1.i = select i1 %13, i64 %spec.select29.i, i64 %spec.select.i
  %14 = icmp ne i64 %.1.i, 0
  %15 = zext i1 %14 to i32
  br label %try_len.exit

try_len.exit:                                     ; preds = %5, %11
  %.sink.i = phi i64 [ %.1.i, %11 ], [ 0, %5 ]
  %.0.i = phi i32 [ %15, %11 ], [ 1, %5 ]
  store i64 %.sink.i, ptr %6, align 16, !tbaa !49
  store i32 %.0.i, ptr %8, align 16, !tbaa !38
  %16 = getelementptr inbounds nuw i8, ptr %7, i64 8
  %17 = getelementptr inbounds nuw i8, ptr %6, i64 8
  %18 = add i64 %2, 2
  store i64 %18, ptr %16, align 8, !tbaa !49
  %.not.i30 = icmp ult i64 %0, %18
  %or.cond.i31 = or i1 %10, %.not.i30
  br i1 %or.cond.i31, label %19, label %try_len.exit37

19:                                               ; preds = %try_len.exit
  %spec.select.i34 = tail call i64 @llvm.umin.i64(i64 %1, i64 16383)
  %20 = add i64 %18, %spec.select.i34
  %21 = icmp ugt i64 %20, %0
  %spec.select29.i35 = tail call i64 @llvm.usub.sat.i64(i64 range(i64 3, 0) %0, i64 %18)
  %.1.i36 = select i1 %21, i64 %spec.select29.i35, i64 %spec.select.i34
  %22 = icmp ne i64 %.1.i36, 0
  %23 = zext i1 %22 to i32
  br label %try_len.exit37

try_len.exit37:                                   ; preds = %try_len.exit, %19
  %.sink.i32 = phi i64 [ %.1.i36, %19 ], [ 0, %try_len.exit ]
  %.0.i33 = phi i32 [ %23, %19 ], [ 1, %try_len.exit ]
  store i64 %.sink.i32, ptr %17, align 8, !tbaa !49
  %24 = getelementptr inbounds nuw i8, ptr %8, i64 4
  store i32 %.0.i33, ptr %24, align 4, !tbaa !38
  %25 = getelementptr inbounds nuw i8, ptr %7, i64 16
  %26 = getelementptr inbounds nuw i8, ptr %6, i64 16
  %27 = add i64 %2, 4
  store i64 %27, ptr %25, align 16, !tbaa !49
  %.not.i38 = icmp ult i64 %0, %27
  %or.cond.i39 = or i1 %10, %.not.i38
  br i1 %or.cond.i39, label %28, label %try_len.exit45

28:                                               ; preds = %try_len.exit37
  %spec.select.i42 = tail call i64 @llvm.umin.i64(i64 %1, i64 1073741823)
  %29 = add i64 %27, %spec.select.i42
  %30 = icmp ugt i64 %29, %0
  %spec.select29.i43 = tail call i64 @llvm.usub.sat.i64(i64 range(i64 3, 0) %0, i64 %27)
  %.1.i44 = select i1 %30, i64 %spec.select29.i43, i64 %spec.select.i42
  %31 = icmp ne i64 %.1.i44, 0
  %32 = zext i1 %31 to i32
  br label %try_len.exit45

try_len.exit45:                                   ; preds = %try_len.exit37, %28
  %.sink.i40 = phi i64 [ %.1.i44, %28 ], [ 0, %try_len.exit37 ]
  %.0.i41 = phi i32 [ %32, %28 ], [ 1, %try_len.exit37 ]
  store i64 %.sink.i40, ptr %26, align 16, !tbaa !49
  %33 = getelementptr inbounds nuw i8, ptr %8, i64 8
  store i32 %.0.i41, ptr %33, align 8, !tbaa !38
  %34 = getelementptr inbounds nuw i8, ptr %7, i64 24
  %35 = getelementptr inbounds nuw i8, ptr %6, i64 24
  %36 = add i64 %2, 8
  store i64 %36, ptr %34, align 8, !tbaa !49
  %.not.i46 = icmp ult i64 %0, %36
  %or.cond.i47 = or i1 %10, %.not.i46
  br i1 %or.cond.i47, label %37, label %try_len.exit53

37:                                               ; preds = %try_len.exit45
  %spec.select.i50 = tail call i64 @llvm.umin.i64(i64 %1, i64 4611686018427387903)
  %38 = add i64 %36, %spec.select.i50
  %39 = icmp ugt i64 %38, %0
  %spec.select29.i51 = tail call i64 @llvm.usub.sat.i64(i64 range(i64 3, 0) %0, i64 %36)
  %.1.i52 = select i1 %39, i64 %spec.select29.i51, i64 %spec.select.i50
  %40 = icmp ne i64 %.1.i52, 0
  %41 = zext i1 %40 to i32
  br label %try_len.exit53

try_len.exit53:                                   ; preds = %try_len.exit45, %37
  %.sink.i48 = phi i64 [ %.1.i52, %37 ], [ 0, %try_len.exit45 ]
  %.0.i49 = phi i32 [ %41, %37 ], [ 1, %try_len.exit45 ]
  store i64 %.sink.i48, ptr %35, align 8, !tbaa !49
  %42 = getelementptr inbounds nuw i8, ptr %8, i64 12
  store i32 %.0.i49, ptr %42, align 4, !tbaa !38
  br label %43

43:                                               ; preds = %try_len.exit53, %52
  %indvars.iv = phi i64 [ 3, %try_len.exit53 ], [ %indvars.iv.next, %52 ]
  %.02356 = phi i64 [ 0, %try_len.exit53 ], [ %.1, %52 ]
  %.02455 = phi i64 [ 0, %try_len.exit53 ], [ %.125, %52 ]
  %.02654 = phi i32 [ 0, %try_len.exit53 ], [ %.127, %52 ]
  %44 = getelementptr inbounds nuw [4 x i32], ptr %8, i64 0, i64 %indvars.iv
  %45 = load i32, ptr %44, align 4, !tbaa !38
  %.not = icmp eq i32 %45, 0
  br i1 %.not, label %52, label %46

46:                                               ; preds = %43
  %47 = getelementptr inbounds nuw [4 x i64], ptr %6, i64 0, i64 %indvars.iv
  %48 = load i64, ptr %47, align 8, !tbaa !49
  %.not29 = icmp ult i64 %48, %.02455
  br i1 %.not29, label %52, label %49

49:                                               ; preds = %46
  %50 = getelementptr inbounds nuw [4 x i64], ptr %7, i64 0, i64 %indvars.iv
  %51 = load i64, ptr %50, align 8, !tbaa !49
  br label %52

52:                                               ; preds = %43, %46, %49
  %.127 = phi i32 [ 1, %49 ], [ %.02654, %46 ], [ %.02654, %43 ]
  %.125 = phi i64 [ %48, %49 ], [ %.02455, %46 ], [ %.02455, %43 ]
  %.1 = phi i64 [ %51, %49 ], [ %.02356, %46 ], [ %.02356, %43 ]
  %indvars.iv.next = add nsw i64 %indvars.iv, -1
  %.not59 = icmp eq i64 %indvars.iv, 0
  br i1 %.not59, label %53, label %43, !llvm.loop !237

53:                                               ; preds = %52
  store i64 %.1, ptr %3, align 8, !tbaa !49
  store i64 %.125, ptr %4, align 8, !tbaa !49
  call void @llvm.lifetime.end.p0(i64 16, ptr nonnull %8) #10
  call void @llvm.lifetime.end.p0(i64 32, ptr nonnull %7) #10
  call void @llvm.lifetime.end.p0(i64 32, ptr nonnull %6) #10
  ret i32 %.127
}